target datalayout = "e-m:e-p270:32:32-p271:32:32-p272:64:64-i64:64-i128:128-f80:128-n8:16:32:64-S128"
target triple = "x86_64-pc-linux-gnu"

%class.anon.1496 = type { ptr, ptr }

; Function Attrs: mustprogress nounwind uwtable
define internal void @"_ZZN5clang4Sema19LookupSpecialMemberEPNS_13CXXRecordDeclENS_20CXXSpecialMemberKindEbbbbbENK3$_3clEv"(ptr noundef nonnull align 8 dereferenceable(16) %0) #0 align 2 {
  %2 = alloca ptr, align 8
  store ptr %0, ptr %2, align 8
  %3 = load ptr, ptr %2, align 8
  %4 = getelementptr inbounds nuw %class.anon.1496, ptr %3, i32 0, i32 0
  %5 = load ptr, ptr %4, align 8
  %6 = getelementptr inbounds nuw %class.anon.1496, ptr %3, i32 0, i32 1
  %7 = load ptr, ptr %6, align 8
  %8 = load ptr, ptr %7, align 8
  %9 = call noundef ptr @_ZN5clang4Sema30DeclareImplicitMoveConstructorEPNS_13CXXRecordDeclE(ptr noundef nonnull align 8 dereferenceable(17560) %5, ptr noundef %8)
  ret void
}

; Function Attrs: mustprogress nounwind uwtable
define internal void @"_ZN4llvm12function_refIFvvEE11callback_fnIZN5clang4Sema19LookupSpecialMemberEPNS4_13CXXRecordDeclENS4_20CXXSpecialMemberKindEbbbbbE3$_3EEvl"(i64 noundef %0) #0 align 2 {
  %2 = alloca i64, align 8
  store i64 %0, ptr %2, align 8
  %3 = load i64, ptr %2, align 8
  %4 = inttoptr i64 %3 to ptr
  call void @"_ZZN5clang4Sema19LookupSpecialMemberEPNS_13CXXRecordDeclENS_20CXXSpecialMemberKindEbbbbbENK3$_3clEv"(ptr noundef nonnull align 8 dereferenceable(16) %4)
  ret void
}